; ModuleID = '29/1340.c'
source_filename = "29/1340.c"
target datalayout = "e-m:e-p270:32:32-p271:32:32-p272:64:64-i64:64-f80:128-n8:16:32:64-S128"
target triple = "x86_64-pc-linux-gnu"

@.str = private unnamed_addr constant [3 x i8] c"%d\00", align 1
@.str.1 = private unnamed_addr constant [7 x i8] c"%.3lf\0A\00", align 1

; Function Attrs: noinline nounwind uwtable
define dso_local i32 @main() #0 {
  %1 = alloca i32, align 4
  %2 = alloca i32, align 4
  %3 = alloca i32, align 4
  %4 = alloca i32, align 4
  %5 = alloca i32, align 4
  %6 = alloca double*, align 8
  %7 = alloca i32, align 4
  %8 = alloca i32, align 4
  %9 = alloca i32, align 4
  store i32 0, i32* %1, align 4
  %10 = call i32 (i8*, ...) @__isoc99_scanf(i8* getelementptr inbounds ([3 x i8], [3 x i8]* @.str, i64 0, i64 0), i32* %2)
  %11 = load i32, i32* %2, align 4
  %12 = sext i32 %11 to i64
  %13 = mul i64 8, %12
  %14 = call noalias i8* @malloc(i64 %13) #3
  %15 = bitcast i8* %14 to double*
  store double* %15, double** %6, align 8
  store i32 0, i32* %3, align 4
  br label %16

16:                                               ; preds = %52, %0
  %17 = load i32, i32* %3, align 4
  %18 = load i32, i32* %2, align 4
  %19 = icmp slt i32 %17, %18
  br i1 %19, label %20, label %55

20:                                               ; preds = %16
  %21 = call i32 (i8*, ...) @__isoc99_scanf(i8* getelementptr inbounds ([3 x i8], [3 x i8]* @.str, i64 0, i64 0), i32* %5)
  store i32 2, i32* %7, align 4
  store i32 1, i32* %8, align 4
  %22 = load double*, double** %6, align 8
  %23 = load i32, i32* %3, align 4
  %24 = sext i32 %23 to i64
  %25 = getelementptr inbounds double, double* %22, i64 %24
  store double 0.000000e+00, double* %25, align 8
  store i32 0, i32* %4, align 4
  br label %26

26:                                               ; preds = %48, %20
  %27 = load i32, i32* %4, align 4
  %28 = load i32, i32* %5, align 4
  %29 = icmp slt i32 %27, %28
  br i1 %29, label %30, label %51

30:                                               ; preds = %26
  %31 = load i32, i32* %7, align 4
  %32 = sitofp i32 %31 to double
  %33 = fmul double 1.000000e+00, %32
  %34 = load i32, i32* %8, align 4
  %35 = sitofp i32 %34 to double
  %36 = fdiv double %33, %35
  %37 = load double*, double** %6, align 8
  %38 = load i32, i32* %3, align 4
  %39 = sext i32 %38 to i64
  %40 = getelementptr inbounds double, double* %37, i64 %39
  %41 = load double, double* %40, align 8
  %42 = fadd double %41, %36
  store double %42, double* %40, align 8
  %43 = load i32, i32* %7, align 4
  store i32 %43, i32* %9, align 4
  %44 = load i32, i32* %7, align 4
  %45 = load i32, i32* %8, align 4
  %46 = add nsw i32 %44, %45
  store i32 %46, i32* %7, align 4
  %47 = load i32, i32* %9, align 4
  store i32 %47, i32* %8, align 4
  br label %48

48:                                               ; preds = %30
  %49 = load i32, i32* %4, align 4
  %50 = add nsw i32 %49, 1
  store i32 %50, i32* %4, align 4
  br label %26

51:                                               ; preds = %26
  br label %52

52:                                               ; preds = %51
  %53 = load i32, i32* %3, align 4
  %54 = add nsw i32 %53, 1
  store i32 %54, i32* %3, align 4
  br label %16

55:                                               ; preds = %16
  store i32 0, i32* %3, align 4
  br label %56

56:                                               ; preds = %67, %55
  %57 = load i32, i32* %3, align 4
  %58 = load i32, i32* %2, align 4
  %59 = icmp slt i32 %57, %58
  br i1 %59, label %60, label %70

60:                                               ; preds = %56
  %61 = load double*, double** %6, align 8
  %62 = load i32, i32* %3, align 4
  %63 = sext i32 %62 to i64
  %64 = getelementptr inbounds double, double* %61, i64 %63
  %65 = load double, double* %64, align 8
  %66 = call i32 (i8*, ...) @printf(i8* getelementptr inbounds ([7 x i8], [7 x i8]* @.str.1, i64 0, i64 0), double %65)
  br label %67

67:                                               ; preds = %60
  %68 = load i32, i32* %3, align 4
  %69 = add nsw i32 %68, 1
  store i32 %69, i32* %3, align 4
  br label %56

70:                                               ; preds = %56
  %71 = load double*, double** %6, align 8
  %72 = bitcast double* %71 to i8*
  call void @free(i8* %72) #3
  ret i32 0
}

declare dso_local i32 @__isoc99_scanf(i8*, ...) #1

; Function Attrs: nounwind
declare dso_local noalias i8* @malloc(i64) #2

declare dso_local i32 @printf(i8*, ...) #1

; Function Attrs: nounwind
declare dso_local void @free(i8*) #2


!llvm.module.flags = !{!0}
!llvm.ident = !{!1}

!0 = !{i32 1, !"wchar_size", i32 4}
!1 = !{!"clang version 10.0.0-4ubuntu1 "}
